(lp0
((dp1
S'a'
p2
Vswisse ultiboost grape seed 14250 mg 180 tablets
p3
sS'b'
p4
g3
sS'y'
p5
tp6
a((dp7
g2
g3
sg4
Vswisse ultiboost grape seed 14250 mg 180 tablets
p8
sS'y'
p9
tp10
a((dp11
g2
g3
sg4
Vswisse ultiboost grape seed 14250 mg 180 tablets
p12
sS'y'
p13
tp14
a((dp15
g2
g3
sg4
Vswisse ultiboost grape seed 14250 mg 180 tablets
p16
sS'y'
p17
tp18
a((dp19
g2
g3
sg4
Vswisse " ultiboost grape seed 14250 mg " 180 tablets
p20
sS'y'
p21
tp22
a((dp23
g2
g3
sg4
Vswisse ultiboost grape seed 14250 mg 180 tablets
p24
sS'y'
p25
tp26
a((dp27
g2
g3
sg4
Vswisse ultiboost grape seed 14250 mg 60 tablets
p28
sS'n'
p29
tp30
a((dp31
g2
g3
sg4
Vswisse ultiboost grape seed 14250 mg 60 tablets
p32
sS'n'
p33
tp34
a((dp35
g2
g3
sg4
Vswisse grape seed 14250 mg 180 tablets * *
p36
sS'y'
p37
tp38
a((dp39
g2
g3
sg4
Vswisse ultiboost grape seed 14250 mg 60 tablets
p40
sS'n'
p41
tp42
a((dp43
g2
g3
sg4
Vswisse ultiboost grape seed 14250 mg 60 tablets
p44
sS'n'
p45
tp46
a((dp47
g2
g3
sg4
Vswisse " ultiboost grape seed 14250 mg " 60 tablets
p48
sS'n'
p49
tp50
a((dp51
g2
g3
sg4
Vswisse ultiboost grape seed 14250 mg 60 tablets
p52
sS'n'
p53
tp54
a((dp55
g2
g3
sg4
Vswisse ultiboost grape seed 180 tablets
p56
sS'y'
p57
tp58
a((dp59
g2
g3
sg4
Vswisse ultiboost grape seed 180 tablets
p60
sS'y'
p61
tp62
a((dp63
g2
g3
sg4
Vswisse " ultiboost grape seed 14250 mg twin pack " 2 pack
p64
sS'y'
p65
tp66
a((dp67
g2
Vnature ' s way kids smart vita gummies vitamin c 60 gummies
p68
sg4
g68
sS'y'
p69
tp70
a((dp71
g2
g68
sg4
Vnature ' s way kids smart vita gummies vitamin c 60 gummies
p72
sS'y'
p73
tp74
a((dp75
g2
g68
sg4
Vnature ' s way kids smart vita gummies vitamin c 60 gummies
p76
sS'y'
p77
tp78
a((dp79
g2
g68
sg4
Vnature ' s way kids smart vita gummies multi vitamin & vegies 60 gummies
p80
sS'n'
p81
tp82
a((dp83
g2
g68
sg4
Vnature ' s way kids smart vita gummies multi vitamin & vegies 60 gummies
p84
sS'n'
p85
tp86
a((dp87
g2
g68
sg4
Vnature ' s way kids smart vita gummies multi vitamin & vegies 60 gummies
p88
sS'n'
p89
tp90
a((dp91
g2
g68
sg4
Vnature ' s way kids smart vita gummies vitamin c + zinc x 60
p92
sS'n'
p93
tp94
a((dp95
g2
g68
sg4
Vnature ' s way kids smart vita gummies vitamin c 60 pastilles
p96
sS'n'
p97
tp98
a((dp99
g2
g68
sg4
Vnature ' s way kids smart vita gummies omega 3 fish oil 60 gummies
p100
sS'n'
p101
tp102
a((dp103
g2
g68
sg4
Vnature ' s way kids smart vita gummies omega 3 fish oil 60 gummies
p104
sS'n'
p105
tp106
a((dp107
g2
g68
sg4
Vnature ' s way kids smart vita gummies vitamin c 60 pack
p108
sS'n'
p109
tp110
a((dp111
g2
g68
sg4
Vnature ' s way kids smart vita gummies vitamin c + zinc citrus flavour 60 pastilles
p112
sS'n'
p113
tp114
a((dp115
g2
g68
sg4
Vnature ' s way kids smart vita gummies vitamin c + zinc x 60
p116
sS'n'
p117
tp118
a((dp119
g2
g68
sg4
Vnature ' s way kids smart vita gummies multi vitamin for fussy eaters 60 pastilles
p120
sS'n'
p121
tp122
a((dp123
g2
g68
sg4
Vnature ' s way vita gummies family vitamin c 120 gummies
p124
sS'n'
p125
tp126
a((dp127
g2
g68
sg4
Vnature ' s way kids smart vita gummies multi - vitamin + veggies x 60
p128
sS'n'
p129
tp130
a.